target datalayout = "e-m:e-p270:32:32-p271:32:32-p272:64:64-i64:64-i128:128-f80:128-n8:16:32:64-S128"
target triple = "x86_64-pc-linux-gnu"

%struct._psqlSettings = type { ptr, i32, ptr, i8, ptr, ptr, %struct.printQueryOpt, ptr, ptr, ptr, i8, i8, i32, i32, ptr, ptr, i8, [4 x ptr], i8, i32, ptr, i8, i32, ptr, ptr, i64, i64, i8, ptr, ptr, ptr, i8, i8, i8, i8, i8, i8, i8, i32, i32, i32, i32, i32, i32, i32, i32, ptr, ptr, ptr, i32, i8, i32 }
%struct.printQueryOpt = type { %struct.printTableOpt, ptr, ptr, ptr, i8, ptr, i32 }
%struct.printTableOpt = type { i32, i16, i32, i32, i16, i16, i32, i8, i8, i8, i8, i64, ptr, %struct.separator, %struct.separator, [2 x i8], i8, ptr, i32, i32, i32, i32, i32, i32 }
%struct.separator = type { ptr, i8 }
%struct.PQExpBufferData = type { ptr, i64, i64 }

@pset = external global %struct._psqlSettings, align 8
@.str.9 = private unnamed_addr constant [10 x i8] c"n.nspname\00", align 1
@.str.123 = private unnamed_addr constant [77 x i8] c"WHERE n.nspname <> 'pg_catalog'\0A      AND n.nspname <> 'information_schema'\0A\00", align 1
@.str.165 = private unnamed_addr constant [10 x i8] c"c.relname\00", align 1
@.str.166 = private unnamed_addr constant [38 x i8] c"pg_catalog.pg_table_is_visible(c.oid)\00", align 1
@.str.199 = private unnamed_addr constant [134 x i8] c"SELECT c.oid,\0A  n.nspname,\0A  c.relname\0AFROM pg_catalog.pg_class c\0A     LEFT JOIN pg_catalog.pg_namespace n ON n.oid = c.relnamespace\0A\00", align 1
@.str.200 = private unnamed_addr constant [15 x i8] c"ORDER BY 2, 3;\00", align 1
@.str.201 = private unnamed_addr constant [38 x i8] c"Did not find any relation named \22%s\22.\00", align 1
@.str.202 = private unnamed_addr constant [28 x i8] c"Did not find any relations.\00", align 1
@cancel_pressed = external global i32, align 4

; Function Attrs: nounwind uwtable
define dso_local zeroext i1 @describeTableDetails(ptr noundef %0, i1 noundef zeroext %1, i1 noundef zeroext %2) #0 {
  %4 = alloca i1, align 1
  %5 = alloca ptr, align 8
  %6 = alloca i8, align 1
  %7 = alloca i8, align 1
  %8 = alloca %struct.PQExpBufferData, align 8
  %9 = alloca ptr, align 8
  %10 = alloca i32, align 4
  %11 = alloca i32, align 4
  %12 = alloca ptr, align 8
  %13 = alloca ptr, align 8
  %14 = alloca ptr, align 8
  store ptr %0, ptr %5, align 8
  %15 = zext i1 %1 to i8
  store i8 %15, ptr %6, align 1
  %16 = zext i1 %2 to i8
  store i8 %16, ptr %7, align 1
  call void @llvm.lifetime.start.p0(i64 24, ptr %8) #8
  call void @llvm.lifetime.start.p0(i64 8, ptr %9) #8
  call void @llvm.lifetime.start.p0(i64 4, ptr %10) #8
  call void @initPQExpBuffer(ptr noundef %8)
  call void (ptr, ptr, ...) @printfPQExpBuffer(ptr noundef %8, ptr noundef @.str.199)
  %17 = load i8, ptr %7, align 1, !range !4, !noundef !5
  %18 = trunc i8 %17 to i1
  br i1 %18, label %23, label %19

19:                                               ; preds = %3
  %20 = load ptr, ptr %5, align 8
  %21 = icmp ne ptr %20, null
  br i1 %21, label %23, label %22

22:                                               ; preds = %19
  call void @appendPQExpBufferStr(ptr noundef %8, ptr noundef @.str.123)
  br label %23

23:                                               ; preds = %22, %19, %3
  %24 = load ptr, ptr %5, align 8
  %25 = load i8, ptr %7, align 1, !range !4, !noundef !5
  %26 = trunc i8 %25 to i1
  br i1 %26, label %31, label %27

27:                                               ; preds = %23
  %28 = load ptr, ptr %5, align 8
  %29 = icmp ne ptr %28, null
  %30 = xor i1 %29, true
  br label %31

31:                                               ; preds = %27, %23
  %32 = phi i1 [ false, %23 ], [ %30, %27 ]
  %33 = call zeroext i1 @validateSQLNamePattern(ptr noundef %8, ptr noundef %24, i1 noundef zeroext %32, i1 noundef zeroext false, ptr noundef @.str.9, ptr noundef @.str.165, ptr noundef null, ptr noundef @.str.166, ptr noundef null, i32 noundef 3)
  br i1 %33, label %35, label %34

34:                                               ; preds = %31
  call void @termPQExpBuffer(ptr noundef %8)
  store i1 false, ptr %4, align 1
  store i32 1, ptr %11, align 4
  br label %96

35:                                               ; preds = %31
  call void @appendPQExpBufferStr(ptr noundef %8, ptr noundef @.str.200)
  %36 = getelementptr inbounds nuw %struct.PQExpBufferData, ptr %8, i32 0, i32 0
  %37 = load ptr, ptr %36, align 8
  %38 = call ptr @PSQLexec(ptr noundef %37)
  store ptr %38, ptr %9, align 8
  call void @termPQExpBuffer(ptr noundef %8)
  %39 = load ptr, ptr %9, align 8
  %40 = icmp ne ptr %39, null
  br i1 %40, label %42, label %41

41:                                               ; preds = %35
  store i1 false, ptr %4, align 1
  store i32 1, ptr %11, align 4
  br label %96

42:                                               ; preds = %35
  %43 = load ptr, ptr %9, align 8
  %44 = call i32 @PQntuples(ptr noundef %43)
  %45 = icmp eq i32 %44, 0
  br i1 %45, label %46, label %58

46:                                               ; preds = %42
  %47 = load i8, ptr getelementptr inbounds nuw (%struct._psqlSettings, ptr @pset, i32 0, i32 33), align 2, !range !4, !noundef !5
  %48 = trunc i8 %47 to i1
  br i1 %48, label %56, label %49

49:                                               ; preds = %46
  %50 = load ptr, ptr %5, align 8
  %51 = icmp ne ptr %50, null
  br i1 %51, label %52, label %54

52:                                               ; preds = %49
  %53 = load ptr, ptr %5, align 8
  call void (i32, i32, ptr, ...) @pg_log_generic(i32 noundef 4, i32 noundef 0, ptr noundef @.str.201, ptr noundef %53)
  br label %55

54:                                               ; preds = %49
  call void (i32, i32, ptr, ...) @pg_log_generic(i32 noundef 4, i32 noundef 0, ptr noundef @.str.202)
  br label %55

55:                                               ; preds = %54, %52
  br label %56

56:                                               ; preds = %55, %46
  %57 = load ptr, ptr %9, align 8
  call void @PQclear(ptr noundef %57)
  store i1 false, ptr %4, align 1
  store i32 1, ptr %11, align 4
  br label %96

58:                                               ; preds = %42
  store i32 0, ptr %10, align 4
  br label %59

59:                                               ; preds = %91, %58
  %60 = load i32, ptr %10, align 4
  %61 = load ptr, ptr %9, align 8
  %62 = call i32 @PQntuples(ptr noundef %61)
  %63 = icmp slt i32 %60, %62
  br i1 %63, label %64, label %94

64:                                               ; preds = %59
  call void @llvm.lifetime.start.p0(i64 8, ptr %12) #8
  call void @llvm.lifetime.start.p0(i64 8, ptr %13) #8
  call void @llvm.lifetime.start.p0(i64 8, ptr %14) #8
  %65 = load ptr, ptr %9, align 8
  %66 = load i32, ptr %10, align 4
  %67 = call ptr @PQgetvalue(ptr noundef %65, i32 noundef %66, i32 noundef 0)
  store ptr %67, ptr %12, align 8
  %68 = load ptr, ptr %9, align 8
  %69 = load i32, ptr %10, align 4
  %70 = call ptr @PQgetvalue(ptr noundef %68, i32 noundef %69, i32 noundef 1)
  store ptr %70, ptr %13, align 8
  %71 = load ptr, ptr %9, align 8
  %72 = load i32, ptr %10, align 4
  %73 = call ptr @PQgetvalue(ptr noundef %71, i32 noundef %72, i32 noundef 2)
  store ptr %73, ptr %14, align 8
  %74 = load ptr, ptr %13, align 8
  %75 = load ptr, ptr %14, align 8
  %76 = load ptr, ptr %12, align 8
  %77 = load i8, ptr %6, align 1, !range !4, !noundef !5
  %78 = trunc i8 %77 to i1
  %79 = call zeroext i1 @describeOneTableDetails(ptr noundef %74, ptr noundef %75, ptr noundef %76, i1 noundef zeroext %78)
  br i1 %79, label %82, label %80

80:                                               ; preds = %64
  %81 = load ptr, ptr %9, align 8
  call void @PQclear(ptr noundef %81)
  store i1 false, ptr %4, align 1
  store i32 1, ptr %11, align 4
  br label %88

82:                                               ; preds = %64
  %83 = load volatile i32, ptr @cancel_pressed, align 4
  %84 = icmp ne i32 %83, 0
  br i1 %84, label %85, label %87

85:                                               ; preds = %82
  %86 = load ptr, ptr %9, align 8
  call void @PQclear(ptr noundef %86)
  store i1 false, ptr %4, align 1
  store i32 1, ptr %11, align 4
  br label %88

87:                                               ; preds = %82
  store i32 0, ptr %11, align 4
  br label %88

88:                                               ; preds = %87, %85, %80
  call void @llvm.lifetime.end.p0(i64 8, ptr %14) #8
  call void @llvm.lifetime.end.p0(i64 8, ptr %13) #8
  call void @llvm.lifetime.end.p0(i64 8, ptr %12) #8
  %89 = load i32, ptr %11, align 4
  switch i32 %89, label %96 [
    i32 0, label %90
  ]

90:                                               ; preds = %88
  br label %91

91:                                               ; preds = %90
  %92 = load i32, ptr %10, align 4
  %93 = add i32 %92, 1
  store i32 %93, ptr %10, align 4
  br label %59, !llvm.loop !11

94:                                               ; preds = %59
  %95 = load ptr, ptr %9, align 8
  call void @PQclear(ptr noundef %95)
  store i1 true, ptr %4, align 1
  store i32 1, ptr %11, align 4
  br label %96

96:                                               ; preds = %94, %88, %56, %41, %34
  call void @llvm.lifetime.end.p0(i64 4, ptr %10) #8
  call void @llvm.lifetime.end.p0(i64 8, ptr %9) #8
  call void @llvm.lifetime.end.p0(i64 24, ptr %8) #8
  %97 = load i1, ptr %4, align 1
  ret i1 %97
}