; Function Attrs: nounwind uwtable
define dso_local noundef zeroext i1 @describeTableDetails(ptr noundef %0, i1 noundef zeroext %1, i1 noundef zeroext %2) local_unnamed_addr #0 {
  %4 = alloca %struct.PQExpBufferData, align 8
  call void @llvm.lifetime.start.p0(i64 24, ptr nonnull %4) #8
  call void @initPQExpBuffer(ptr noundef nonnull %4) #8
  call void (ptr, ptr, ...) @printfPQExpBuffer(ptr noundef nonnull %4, ptr noundef nonnull @.str.199) #8
  %5 = icmp ne ptr %0, null
  %or.cond = or i1 %5, %2
  br i1 %or.cond, label %7, label %6

6:                                                ; preds = %3
  call void @appendPQExpBufferStr(ptr noundef nonnull %4, ptr noundef nonnull @.str.123) #8
  br label %7

7:                                                ; preds = %6, %3
  %8 = xor i1 %or.cond, true
  %9 = call fastcc zeroext i1 @validateSQLNamePattern(ptr noundef %4, ptr noundef %0, i1 noundef zeroext %8, i1 noundef zeroext false, ptr noundef nonnull @.str.9, ptr noundef nonnull @.str.165, ptr noundef null, ptr noundef nonnull @.str.166, ptr noundef null, i32 noundef 3)
  br i1 %9, label %11, label %10

10:                                               ; preds = %7
  call void @termPQExpBuffer(ptr noundef nonnull %4) #8
  br label %.critedge

11:                                               ; preds = %7
  call void @appendPQExpBufferStr(ptr noundef nonnull %4, ptr noundef nonnull @.str.200) #8
  %12 = load ptr, ptr %4, align 8
  %13 = call ptr @PSQLexec(ptr noundef %12) #8
  call void @termPQExpBuffer(ptr noundef nonnull %4) #8
  %.not = icmp eq ptr %13, null
  br i1 %.not, label %.critedge, label %14

14:                                               ; preds = %11
  %15 = call i32 @PQntuples(ptr noundef nonnull %13) #8
  %16 = icmp eq i32 %15, 0
  br i1 %16, label %19, label %.preheader

.preheader:                                       ; preds = %14
  %17 = call i32 @PQntuples(ptr noundef nonnull %13) #8
  %18 = icmp sgt i32 %17, 0
  br i1 %18, label %.lr.ph, label %._crit_edge

19:                                               ; preds = %14
  %20 = load i8, ptr getelementptr inbounds nuw (i8, ptr @pset, i64 402), align 2, !range !9, !noundef !10
  %21 = trunc nuw i8 %20 to i1
  br i1 %21, label %25, label %22

22:                                               ; preds = %19
  br i1 %5, label %23, label %24

23:                                               ; preds = %22
  call void (i32, i32, ptr, ...) @pg_log_generic(i32 noundef 4, i32 noundef 0, ptr noundef nonnull @.str.201, ptr noundef nonnull %0) #8
  br label %25

24:                                               ; preds = %22
  call void (i32, i32, ptr, ...) @pg_log_generic(i32 noundef 4, i32 noundef 0, ptr noundef nonnull @.str.202) #8
  br label %25

25:                                               ; preds = %23, %24, %19
  call void @PQclear(ptr noundef nonnull %13) #8
  br label %.critedge

26:                                               ; preds = %35
  %27 = add nuw nsw i32 %.02833, 1
  %28 = call i32 @PQntuples(ptr noundef nonnull %13) #8
  %29 = icmp slt i32 %27, %28
  br i1 %29, label %.lr.ph, label %._crit_edge, !llvm.loop !11

.lr.ph:                                           ; preds = %.preheader, %26
  %.02833 = phi i32 [ %27, %26 ], [ 0, %.preheader ]
  %30 = call ptr @PQgetvalue(ptr noundef nonnull %13, i32 noundef %.02833, i32 noundef 0) #8
  %31 = call ptr @PQgetvalue(ptr noundef nonnull %13, i32 noundef %.02833, i32 noundef 1) #8
  %32 = call ptr @PQgetvalue(ptr noundef nonnull %13, i32 noundef %.02833, i32 noundef 2) #8
  %33 = call fastcc zeroext i1 @describeOneTableDetails(ptr noundef %31, ptr noundef %32, ptr noundef %30, i1 noundef zeroext %1)
  br i1 %33, label %35, label %34

34:                                               ; preds = %.lr.ph
  call void @PQclear(ptr noundef nonnull %13) #8
  br label %.critedge

35:                                               ; preds = %.lr.ph
  %36 = load volatile i32, ptr @cancel_pressed, align 4
  %.not32 = icmp eq i32 %36, 0
  br i1 %.not32, label %26, label %37

37:                                               ; preds = %35
  call void @PQclear(ptr noundef nonnull %13) #8
  br label %.critedge

._crit_edge:                                      ; preds = %26, %.preheader
  call void @PQclear(ptr noundef nonnull %13) #8
  br label %.critedge

.critedge:                                        ; preds = %37, %34, %11, %._crit_edge, %25, %10
  %.0 = phi i1 [ false, %25 ], [ true, %._crit_edge ], [ false, %10 ], [ false, %11 ], [ false, %34 ], [ false, %37 ]
  call void @llvm.lifetime.end.p0(i64 24, ptr nonnull %4) #8
  ret i1 %.0
}